((lp0
cnumpy.core.multiarray
_reconstruct
p1
(cnumpy
ndarray
p2
(I0
tp3
S'b'
p4
tp5
Rp6
(I1
(I2
tp7
cnumpy
dtype
p8
(S'f2'
p9
I0
I1
tp10
Rp11
(I3
S'<'
p12
NNNI-1
I-1
I0
tp13
bI00
S'\x9a=\xcdC'
p14
tp15
bag1
(g2
(I0
tp16
g4
tp17
Rp18
(I1
(I2
tp19
g11
I00
S'`>\xa2C'
p20
tp21
bag1
(g2
(I0
tp22
g4
tp23
Rp24
(I1
(I2
tp25
g11
I00
S'\xa3?]C'
p26
tp27
bag1
(g2
(I0
tp28
g4
tp29
Rp30
(I1
(I2
tp31
g11
I00
S'9@%C'
p32
tp33
bag1
(g2
(I0
tp34
g4
tp35
Rp36
(I1
(I2
tp37
g11
I00
S'\x0f@\x0fC'
p38
tp39
bag1
(g2
(I0
tp40
g4
tp41
Rp42
(I1
(I2
tp43
g11
I00
S'\x1f?\x0eC'
p44
tp45
bag1
(g2
(I0
tp46
g4
tp47
Rp48
(I1
(I2
tp49
g11
I00
S'c>\x03C'
p50
tp51
bag1
(g2
(I0
tp52
g4
tp53
Rp54
(I1
(I2
tp55
g11
I00
S'A>\xdfB'
p56
tp57
bag1
(g2
(I0
tp58
g4
tp59
Rp60
(I1
(I2
tp61
g11
I00
S'\x9c>\xa6B'
p62
tp63
bag1
(g2
(I0
tp64
g4
tp65
Rp66
(I1
(I2
tp67
g11
I00
S'\x1d?gB'
p68
tp69
bag1
(g2
(I0
tp70
g4
tp71
Rp72
(I1
(I2
tp73
g11
I00
S'Q?3B'
p74
tp75
bag1
(g2
(I0
tp76
g4
tp77
Rp78
(I1
(I2
tp79
g11
I00
S'\x0b?\x11B'
p80
tp81
bag1
(g2
(I0
tp82
g4
tp83
Rp84
(I1
(I2
tp85
g11
I00
S'\x89>\xf8A'
p86
tp87
bag1
(g2
(I0
tp88
g4
tp89
Rp90
(I1
(I2
tp91
g11
I00
S'#>\xdaA'
p92
tp93
bag1
(g2
(I0
tp94
g4
tp95
Rp96
(I1
(I2
tp97
g11
I00
S'\xfe=\xb1A'
p98
tp99
bag1
(g2
(I0
tp100
g4
tp101
Rp102
(I1
(I2
tp103
g11
I00
S'\x10>~A'
p104
tp105
bag1
(g2
(I0
tp106
g4
tp107
Rp108
(I1
(I2
tp109
g11
I00
S'4>HA'
p110
tp111
bag1
(g2
(I0
tp112
g4
tp113
Rp114
(I1
(I2
tp115
g11
I00
S'@>\x16A'
p116
tp117
bag1
(g2
(I0
tp118
g4
tp119
Rp120
(I1
(I2
tp121
g11
I00
S' >\xeb@'
p122
tp123
bag1
(g2
(I0
tp124
g4
tp125
Rp126
(I1
(I2
tp127
g11
I00
S'\xdf=\xc5@'
p128
tp129
bag1
(g2
(I0
tp130
g4
tp131
Rp132
(I1
(I2
tp133
g11
I00
S'\x97=\x9f@'
p134
tp135
bag1
(g2
(I0
tp136
g4
tp137
Rp138
(I1
(I2
tp139
g11
I00
S']=v@'
p140
tp141
bag1
(g2
(I0
tp142
g4
tp143
Rp144
(I1
(I2
tp145
g11
I00
S'8=H@'
p146
tp147
bag1
(g2
(I0
tp148
g4
tp149
Rp150
(I1
(I2
tp151
g11
I00
S'#=\x15@'
p152
tp153
bag1
(g2
(I0
tp154
g4
tp155
Rp156
(I1
(I2
tp157
g11
I00
S'\x13=\xc1?'
p158
tp159
bag1
(g2
(I0
tp160
g4
tp161
Rp162
(I1
(I2
tp163
g11
I00
S'\xfb<X?'
p164
tp165
bag1
(g2
(I0
tp166
g4
tp167
Rp168
(I1
(I2
tp169
g11
I00
S'\xd6<\xf2>'
p170
tp171
bag1
(g2
(I0
tp172
g4
tp173
Rp174
(I1
(I2
tp175
g11
I00
S'\xa3<\x90>'
p176
tp177
bag1
(g2
(I0
tp178
g4
tp179
Rp180
(I1
(I2
tp181
g11
I00
S'f<.>'
p182
tp183
bag1
(g2
(I0
tp184
g4
tp185
Rp186
(I1
(I2
tp187
g11
I00
S'%<\xcb='
p188
tp189
bag1
(g2
(I0
tp190
g4
tp191
Rp192
(I1
(I2
tp193
g11
I00
S'\xc5;d='
p194
tp195
bag1
(g2
(I0
tp196
g4
tp197
Rp198
(I1
(I2
tp199
g11
I00
S'?;\xf7<'
p200
tp201
bag1
(g2
(I0
tp202
g4
tp203
Rp204
(I1
(I2
tp205
g11
I00
S'\xb6:\x85<'
p206
tp207
bag1
(g2
(I0
tp208
g4
tp209
Rp210
(I1
(I2
tp211
g11
I00
S'$:\x0e<'
p212
tp213
bag1
(g2
(I0
tp214
g4
tp215
Rp216
(I1
(I2
tp217
g11
I00
S"\x829';"
p218
tp219
bag1
(g2
(I0
tp220
g4
tp221
Rp222
(I1
(I2
tp223
g11
I00
S'\xca8,:'
p224
tp225
bag1
(g2
(I0
tp226
g4
tp227
Rp228
(I1
(I2
tp229
g11
I00
S'\xe97-9'
p230
tp231
bag1
(g2
(I0
tp232
g4
tp233
Rp234
(I1
(I2
tp235
g11
I00
S'\xf65,8'
p236
tp237
bag1
(g2
(I0
tp238
g4
tp239
Rp240
(I1
(I2
tp241
g11
I00
S'U3W6'
p242
tp243
bag1
(g2
(I0
tp244
g4
tp245
Rp246
(I1
(I2
tp247
g11
I00
S'\xaf+a4'
p248
tp249
bag1
(g2
(I0
tp250
g4
tp251
Rp252
(I1
(I2
tp253
g11
I00
S'i\xb0\x0e1'
p254
tp255
bag1
(g2
(I0
tp256
g4
tp257
Rp258
(I1
(I2
tp259
g11
I00
S'\xd0\xb57+'
p260
tp261
bag1
(g2
(I0
tp262
g4
tp263
Rp264
(I1
(I2
tp265
g11
I00
S'\xd5\xb8\x1b\xa5'
p266
tp267
bag1
(g2
(I0
tp268
g4
tp269
Rp270
(I1
(I2
tp271
g11
I00
S'\xa4\xba.\xab'
p272
tp273
bag1
(g2
(I0
tp274
g4
tp275
Rp276
(I1
(I2
tp277
g11
I00
S'\xf5\xbb\xb7\xa8'
p278
tp279
bag1
(g2
(I0
tp280
g4
tp281
Rp282
(I1
(I2
tp283
g11
I00
S';\xbc\xc7)'
p284
tp285
ba(lp286
cnumpy.core.multiarray
scalar
p287
(g8
(S'f8'
p288
I0
I1
tp289
Rp290
(I3
S'<'
p291
NNNI-1
I-1
I0
tp292
bS'+A\x02VK\xb3\x83@'
p293
tp294
Rp295
ag287
(g290
S'\xa3\x14\x95p\xbd\x19\x82@'
p296
tp297
Rp298
ag287
(g290
S'I\xe3\x9cnL\x10\x81@'
p299
tp300
Rp301
ag287
(g290
S'\x9eI\x1d\xea,K\x82@'
p302
tp303
Rp304
ag287
(g290
S'\x9d\x82\xe4q\xa3\xaf\x81@'
p305
tp306
Rp307
ag287
(g290
S'\x8a\xda\xab\xac_\xeb\x80@'
p308
tp309
Rp310
ag287
(g290
S'PDB\xdd\x81^\x81@'
p311
tp312
Rp313
ag287
(g290
S'O\xeb{\x1f\xd4]\x81@'
p314
tp315
Rp316
ag287
(g290
S'&\x95\x8dgC\xe2\x80@'
p317
tp318
Rp319
ag287
(g290
S'#R\xb5\xc8\xce\xc6\x80@'
p320
tp321
Rp322
ag287
(g290
S'6\xa7\xbe\xc9\xc3\xf3\x80@'
p323
tp324
Rp325
ag287
(g290
S'-\x08\xa0i\x9d\xbd\x80@'
p326
tp327
Rp328
ag287
(g290
S'\xbf\x86\x91IY\x8f\x80@'
p329
tp330
Rp331
ag287
(g290
S'v\xb5A\xa16\x97\x80@'
p332
tp333
Rp334
ag287
(g290
S'\x9f\xf4\xeaD|\x8c\x80@'
p335
tp336
Rp337
ag287
(g290
S'\xe2b\xb4\xca\x89h\x80@'
p338
tp339
Rp340
ag287
(g290
S'\xc9x\xd1"\x8fS\x80@'
p341
tp342
Rp343
ag287
(g290
S'\xbb\xde%\xa0ML\x80@'
p344
tp345
Rp346
ag287
(g290
S't\xde;\x1c\xd8:\x80@'
p347
tp348
Rp349
ag287
(g290
S'\xb5\x97\xcadE!\x80@'
p350
tp351
Rp352
ag287
(g290
S'\x13\x9c/|0\x0e\x80@'
p353
tp354
Rp355
ag287
(g290
S'\xa2\x80\x94\xe8\xf9\xfb\x7f@'
p356
tp357
Rp358
ag287
(g290
S'\x1e\xc7\x94\xc0\x12\xd4\x7f@'
p359
tp360
Rp361
ag287
(g290
S'\xf6\x9f\xf5\x17\x97\xa4\x7f@'
p362
tp363
Rp364
ag287
(g290
S'\xdc\xf1\x13\x1b\xe4w\x7f@'
p365
tp366
Rp367
ag287
(g290
S'b$M\x9f\x04K\x7f@'
p368
tp369
Rp370
ag287
(g290
S'\x80\xc3\x97\x03\xb8\x1b\x7f@'
p371
tp372
Rp373
ag287
(g290
S'\xd4\x98\x0b\xaf\xb4\xe7~@'
p374
tp375
Rp376
ag287
(g290
S'\xda\x1d\xaapi\xad~@'
p377
tp378
Rp379
ag287
(g290
S'^\x0f\x03\xa7Vq~@'
p380
tp381
Rp382
ag287
(g290
S'\xefWO\xeci0~@'
p383
tp384
Rp385
ag287
(g290
S'\xc2\xc1\x03\xf0G\xe8}@'
p386
tp387
Rp388
ag287
(g290
S'\xbb\xfd9\x12\xdc\x98}@'
p389
tp390
Rp391
ag287
(g290
S'\x02|\x8e\xd2\xf6>}@'
p392
tp393
Rp394
ag287
(g290
S'|\x00OdA\xdb|@'
p395
tp396
Rp397
ag287
(g290
S'no<\xf6Zg|@'
p398
tp399
Rp400
ag287
(g290
S'\xdc\xf7\xec\x16$\xdf{@'
p401
tp402
Rp403
ag287
(g290
S'\x0em\xfd\x19\xac;{@'
p404
tp405
Rp406
ag287
(g290
S';\xf2\x80\xfa-tz@'
p407
tp408
Rp409
ag287
(g290
S"8>'\xb5.\x81y@"
p410
tp411
Rp412
ag287
(g290
S'\x9d\x1c\xb3\x13;dx@'
p413
tp414
Rp415
ag287
(g290
S'L2\xfeB\x89?w@'
p416
tp417
Rp418
ag287
(g290
S'm\x1d\x01\xd6Ylv@'
p419
tp420
Rp421
ag287
(g290
S'5\xc4y\xb7\x02Uv@'
p422
tp423
Rp424
ag287
(g290
S'\xf5\xb6e{\xb9\xc4v@'
p425
tp426
Rp427
ag287
(g290
S']\x80h\xf5\x0f\xb4v@'
p428
tp429
Rp430
a(lp431
g1
(g2
(I0
tp432
g4
tp433
Rp434
(I1
(I2
tp435
g11
I00
S';\xbc\xc8)'
p436
tp437
bag1
(g2
(I0
tp438
g4
tp439
Rp440
(I1
(I2
tp441
g11
I00
S'\xf6\xbb\xb4\xa8'
p442
tp443
bag1
(g2
(I0
tp444
g4
tp445
Rp446
(I1
(I2
tp447
g11
I00
S'\xa5\xba&\xab'
p448
tp449
bag1
(g2
(I0
tp450
g4
tp451
Rp452
(I1
(I2
tp453
g11
I00
S'\xd6\xb8\xfe\xa4'
p454
tp455
bag1
(g2
(I0
tp456
g4
tp457
Rp458
(I1
(I2
tp459
g11
I00
S'\xd0\xb5M+'
p460
tp461
bag1
(g2
(I0
tp462
g4
tp463
Rp464
(I1
(I2
tp465
g11
I00
S'h\xb0\x151'
p466
tp467
bag1
(g2
(I0
tp468
g4
tp469
Rp470
(I1
(I2
tp471
g11
I00
S'\xbc+e4'
p472
tp473
bag1
(g2
(I0
tp474
g4
tp475
Rp476
(I1
(I2
tp477
g11
I00
S'[3[6'
p478
tp479
bag1
(g2
(I0
tp480
g4
tp481
Rp482
(I1
(I2
tp483
g11
I00
S'\xfb5.8'
p484
tp485
bag1
(g2
(I0
tp486
g4
tp487
Rp488
(I1
(I2
tp489
g11
I00
S'\xf17/9'
p490
tp491
bag1
(g2
(I0
tp492
g4
tp493
Rp494
(I1
(I2
tp495
g11
I00
S'\xd08.:'
p496
tp497
bag1
(g2
(I0
tp498
g4
tp499
Rp500
(I1
(I2
tp501
g11
I00
S'\x8a9);'
p502
tp503
bag1
(g2
(I0
tp504
g4
tp505
Rp506
(I1
(I2
tp507
g11
I00
S'.:\x10<'
p508
tp509
bag1
(g2
(I0
tp510
g4
tp511
Rp512
(I1
(I2
tp513
g11
I00
S'\xc2:\x88<'
p514
tp515
bag1
(g2
(I0
tp516
g4
tp517
Rp518
(I1
(I2
tp519
g11
I00
S'M;\xfc<'
p520
tp521
bag1
(g2
(I0
tp522
g4
tp523
Rp524
(I1
(I2
tp525
g11
I00
S'\xd3;l='
p526
tp527
bag1
(g2
(I0
tp528
g4
tp529
Rp530
(I1
(I2
tp531
g11
I00
S',<\xd8='
p532
tp533
bag1
(g2
(I0
tp534
g4
tp535
Rp536
(I1
(I2
tp537
g11
I00
S'm<A>'
p538
tp539
bag1
(g2
(I0
tp540
g4
tp541
Rp542
(I1
(I2
tp543
g11
I00
S'\xaa<\xa9>'
p544
tp545
bag1
(g2
(I0
tp546
g4
tp547
Rp548
(I1
(I2
tp549
g11
I00
S'\xe0<\x13?'
p550
tp551
bag1
(g2
(I0
tp552
g4
tp553
Rp554
(I1
(I2
tp555
g11
I00
S'\x0b=\x81?'
p556
tp557
bag1
(g2
(I0
tp558
g4
tp559
Rp560
(I1
(I2
tp561
g11
I00
S'+=\xf5?'
p562
tp563
bag1
(g2
(I0
tp564
g4
tp565
Rp566
(I1
(I2
tp567
g11
I00
S'E=6@'
p568
tp569
bag1
(g2
(I0
tp570
g4
tp571
Rp572
(I1
(I2
tp573
g11
I00
S'd=r@'
p574
tp575
bag1
(g2
(I0
tp576
g4
tp577
Rp578
(I1
(I2
tp579
g11
I00
S'\x91=\xae@'
p580
tp581
bag1
(g2
(I0
tp582
g4
tp583
Rp584
(I1
(I2
tp585
g11
I00
S'\xd3=\xe9@'
p586
tp587
bag1
(g2
(I0
tp588
g4
tp589
Rp590
(I1
(I2
tp591
g11
I00
S'#>&A'
p592
tp593
bag1
(g2
(I0
tp594
g4
tp595
Rp596
(I1
(I2
tp597
g11
I00
S'n>jA'
p598
tp599
bag1
(g2
(I0
tp600
g4
tp601
Rp602
(I1
(I2
tp603
g11
I00
S'\x9e>\xbaA'
p604
tp605
bag1
(g2
(I0
tp606
g4
tp607
Rp608
(I1
(I2
tp609
g11
I00
S'\xae>\x1aB'
p610
tp611
bag1
(g2
(I0
tp612
g4
tp613
Rp614
(I1
(I2
tp615
g11
I00
S'\xb8>\x88B'
p616
tp617
bag1
(g2
(I0
tp618
g4
tp619
Rp620
(I1
(I2
tp621
g11
I00
S'\xe8>\x01C'
p622
tp623
bag1
(g2
(I0
tp624
g4
tp625
Rp626
(I1
(I2
tp627
g11
I00
S'^?\x85C'
p628
tp629
bag1
(g2
(I0
tp630
g4
tp631
Rp632
(I1
(I2
tp633
g11
I00
S'\x06@\x0eD'
p634
tp635
bag1
(g2
(I0
tp636
g4
tp637
Rp638
(I1
(I2
tp639
g11
I00
S'O@mD'
p640
tp641
bag1
(g2
(I0
tp642
g4
tp643
Rp644
(I1
(I2
tp645
g11
I00
S'g@\xe7D'
p646
tp647
bag1
(g2
(I0
tp648
g4
tp649
Rp650
(I1
(I2
tp651
g11
I00
S'k@\x7fE'
p652
tp653
bag1
(g2
(I0
tp654
g4
tp655
Rp656
(I1
(I2
tp657
g11
I00
S'\xa9@3F'
p658
tp659
bag1
(g2
(I0
tp660
g4
tp661
Rp662
(I1
(I2
tp663
g11
I00
S'IA\x07G'
p664
tp665
bag1
(g2
(I0
tp666
g4
tp667
Rp668
(I1
(I2
tp669
g11
I00
S'\xf8A\x08H'
p670
tp671
bag1
(g2
(I0
tp672
g4
tp673
Rp674
(I1
(I2
tp675
g11
I00
S'-B\xb3H'
p676
tp677
bag1
(g2
(I0
tp678
g4
tp679
Rp680
(I1
(I2
tp681
g11
I00
S':B\x8aI'
p682
tp683
bag1
(g2
(I0
tp684
g4
tp685
Rp686
(I1
(I2
tp687
g11
I00
S'\xf7B\x8fJ'
p688
tp689
bag1
(g2
(I0
tp690
g4
tp691
Rp692
(I1
(I2
tp693
g11
I00
S'6D\xcfK'
p694
tp695
bag1
(g2
(I0
tp696
g4
tp697
Rp698
(I1
(I2
tp699
g11
I00
S'\xbaD\xb2L'
p700
tp701
bag1
(g2
(I0
tp702
g4
tp703
Rp704
(I1
(I2
tp705
g11
I00
S'>E\xb1M'
p706
tp707
ba(lp708
g287
(g290
S']\x80h\xf5\x0f\xb4v@'
p709
tp710
Rp711
ag287
(g290
S'\x11#\x13\x11\x1f\xc5v@'
p712
tp713
Rp714
ag287
(g290
S'5\xc4y\xb7\x02Uv@'
p715
tp716
Rp717
ag287
(g290
S'ZSB\x86\xf4kv@'
p718
tp719
Rp720
ag287
(g290
S'L2\xfeB\x89?w@'
p721
tp722
Rp723
ag287
(g290
S'uH\x9cj\xa1dx@'
p724
tp725
Rp726
ag287
(g290
S'\x9d\xc3ul\xfb\x81y@'
p727
tp728
Rp729
ag287
(g290
S'A\xa1u)\x93uz@'
p730
tp731
Rp732
ag287
(g290
S'E(\xa2lB={@'
p733
tp734
Rp735
ag287
(g290
S'0\xad\x0bF\xb8\xe0{@'
p736
tp737
Rp738
ag287
(g290
S'\xb8]0\xf1\xb5i|@'
p739
tp740
Rp741
ag287
(g290
S'\xf1\x0c\x13#\x99\xdd|@'
p742
tp743
Rp744
ag287
(g290
S'\x8e\xb9\xf5-\xd9B}@'
p745
tp746
Rp747
ag287
(g290
S'\x16\xc1\x18U\xb9\x9c}@'
p748
tp749
Rp750
ag287
(g290
S'&\xc3P\\ \xec}@'
p751
tp752
Rp753
ag287
(g290
S'M\x03}\x82\xc55~@'
p754
tp755
Rp756
ag287
(g290
S'\x8b\xe5\r\r\xf5x~@'
p757
tp758
Rp759
ag287
(g290
S'\xb1\xc2\x98\x99E\xb7~@'
p760
tp761
Rp762
ag287
(g290
S'8p\x92\x00\x08\xf3~@'
p763
tp764
Rp765
ag287
(g290
S'\xf0\x81\x1a"\xc1*\x7f@'
p766
tp767
Rp768
ag287
(g290
S'\xb2\xa6\xb9\xed{^\x7f@'
p769
tp770
Rp771
ag287
(g290
S'\x14~\xa0\xa2\xc0\x8f\x7f@'
p772
tp773
Rp774
ag287
(g290
S'S\x98\xe9\x86J\xc2\x7f@'
p775
tp776
Rp777
ag287
(g290
S'B/\x15\xf6\x12\xf6\x7f@'
p778
tp779
Rp780
ag287
(g290
S'\xd5\x18\x8dz\xcd\x14\x80@'
p781
tp782
Rp783
ag287
(g290
S'b\xfb\xd8A?,\x80@'
p784
tp785
Rp786
ag287
(g290
S'e\x80\xda\xaf7G\x80@'
p787
tp788
Rp789
ag287
(g290
S'\xe2b\xb4\xca\x89h\x80@'
p790
tp791
Rp792
ag287
(g290
S'^eT\xaf*\x83\x80@'
p793
tp794
Rp795
ag287
(g290
S'T\x9d\xc3J\x7f\x9b\x80@'
p796
tp797
Rp798
ag287
(g290
S'\x07\t\xfb\x10e\xc5\x80@'
p799
tp800
Rp801
ag287
(g290
S"'3\x9f\\)\xf5\x80@"
p802
tp803
Rp804
ag287
(g290
S'\xa9l\x10\xea\x9a\x0f\x81@'
p805
tp806
Rp807
ag287
(g290
S'\xc4\x14\xcfl\xb9H\x81@'
p808
tp809
Rp810
ag287
(g290
S'\\\xe2\x8d\xb4\x07\xa3\x81@'
p811
tp812
Rp813
ag287
(g290
S'\x88}6x\xf6\xb0\x81@'
p814
tp815
Rp816
ag287
(g290
S'\x04\xb34e.\x17\x82@'
p817
tp818
Rp819
ag287
(g290
S't\xe1u\xda\xde\x89\x82@'
p820
tp821
Rp822
ag287
(g290
S'\x9f5s\xce\xe2\x94\x82@'
p823
tp824
Rp825
ag287
(g290
S'\xda\x1c\x0e\xff#\xd4\x83@'
p826
tp827
Rp828
ag287
(g290
S'\xc9\x19F\x8adk\x83@'
p829
tp830
Rp831
ag287
(g290
S'}\x89\xa0I\xbc\xec\x84@'
p832
tp833
Rp834
ag287
(g290
S'\x89\x1a\x9c\x98\xb4\xce\x84@'
p835
tp836
Rp837
ag287
(g290
S'\xe9\xa1\xdaQVF\x87@'
p838
tp839
Rp840
ag287
(g290
S'\xeb\xe3\xba\x8e\x8e\xb6\x88@'
p841
tp842
Rp843
ag287
(g290
S'\x99\xdd\xebY*\xf7\x88@'
p844
tp845
Rp846
atp847
.